target datalayout = "e-m:e-p270:32:32-p271:32:32-p272:64:64-i64:64-i128:128-f80:128-n8:16:32:64-S128"
target triple = "x86_64-pc-linux-gnu"

%struct._zval_struct = type { %union._zend_value, %union.anon, %union.anon.2 }
%union._zend_value = type { i64 }
%union.anon = type { i32 }
%union.anon.2 = type { i32 }
%struct._zend_array = type { %struct._zend_refcounted_h, %union.anon.4, i32, %union.anon.6, i32, i32, i32, i32, i64, ptr }
%struct._zend_refcounted_h = type { i32, %union.anon.3 }
%union.anon.3 = type { i32 }
%union.anon.4 = type { i32 }
%union.anon.6 = type { ptr }
%struct._zend_fcall_info_cache = type { ptr, ptr, ptr, ptr, ptr }
%struct._zend_fcall_info = type { i64, %struct._zval_struct, ptr, ptr, ptr, i32, ptr }
%struct._php_basic_globals = type { ptr, %struct._zend_array, ptr, ptr, i8, ptr, [256 x i8], i64, %struct._zend_fcall_info, %struct._zend_fcall_info_cache, ptr, %struct._zval_struct, %struct._zval_struct, i64, i64, i64, i64, ptr, ptr, %struct._php_stream_statbuf, %struct._php_stream_statbuf, ptr, i32, %struct.anon.14, %struct.anon.15, %struct.url_adapt_state_ex_t, %struct._zend_array, %struct.url_adapt_state_ex_t, %struct._zend_array, ptr, i32, i64 }
%struct._php_stream_statbuf = type { %struct.stat }
%struct.stat = type { i64, i64, i64, i32, i32, i32, i32, i64, i64, i64, i64, %struct.timespec, %struct.timespec, %struct.timespec, [3 x i64] }
%struct.timespec = type { i64, i64 }
%struct.anon.14 = type { ptr, i32 }
%struct.anon.15 = type { ptr, i32 }
%struct.url_adapt_state_ex_t = type { %struct.smart_str, %struct.smart_str, %struct.smart_str, %struct.smart_str, %struct.smart_str, %struct.smart_str, %struct.smart_str, i32, ptr, i32, i32, %struct.smart_str, i32, i32, ptr }
%struct.smart_str = type { ptr, i64 }
%struct.anon.0 = type { i8, i8, %union.anon.1 }
%union.anon.1 = type { i16 }

@basic_globals = external global %struct._php_basic_globals, align 8

; Function Attrs: alwaysinline nounwind uwtable
define internal i64 @zval_get_long(ptr noundef %0) #5 {
  %2 = alloca ptr, align 8
  store ptr %0, ptr %2, align 8, !tbaa !13
  %3 = load ptr, ptr %2, align 8, !tbaa !13
  %4 = call zeroext i8 @zval_get_type(ptr noundef %3)
  %5 = zext i8 %4 to i32
  %6 = icmp eq i32 %5, 4
  %7 = xor i1 %6, true
  %8 = xor i1 %7, true
  %9 = zext i1 %8 to i32
  %10 = sext i32 %9 to i64
  %11 = call i64 @llvm.expect.i64(i64 %10, i64 1)
  %12 = icmp ne i64 %11, 0
  br i1 %12, label %13, label %17

13:                                               ; preds = %1
  %14 = load ptr, ptr %2, align 8, !tbaa !13
  %15 = getelementptr inbounds nuw %struct._zval_struct, ptr %14, i32 0, i32 0
  %16 = load i64, ptr %15, align 8, !tbaa !17
  br label %20

17:                                               ; preds = %1
  %18 = load ptr, ptr %2, align 8, !tbaa !13
  %19 = call i64 @zval_get_long_func(ptr noundef %18, i1 noundef zeroext false)
  br label %20

20:                                               ; preds = %17, %13
  %21 = phi i64 [ %16, %13 ], [ %19, %17 ]
  ret i64 %21
}

; Function Attrs: alwaysinline nounwind uwtable
define internal zeroext i8 @zval_get_type(ptr noundef %0) #5 {
  %2 = alloca ptr, align 8
  store ptr %0, ptr %2, align 8, !tbaa !13
  %3 = load ptr, ptr %2, align 8, !tbaa !13
  %4 = getelementptr inbounds nuw %struct._zval_struct, ptr %3, i32 0, i32 1
  %5 = getelementptr inbounds nuw %struct.anon.0, ptr %4, i32 0, i32 0
  %6 = load i8, ptr %5, align 8, !tbaa !17
  ret i8 %6
}

; Function Attrs: nounwind uwtable
define internal i32 @zval_user_compare(ptr noundef %0, ptr noundef %1) #0 {
  %3 = alloca i32, align 4
  %4 = alloca ptr, align 8
  %5 = alloca ptr, align 8
  %6 = alloca [2 x %struct._zval_struct], align 16
  %7 = alloca %struct._zval_struct, align 8
  %8 = alloca ptr, align 8
  %9 = alloca ptr, align 8
  %10 = alloca ptr, align 8
  %11 = alloca i32, align 4
  %12 = alloca ptr, align 8
  %13 = alloca ptr, align 8
  %14 = alloca ptr, align 8
  %15 = alloca i32, align 4
  %16 = alloca i64, align 8
  %17 = alloca i32, align 4
  store ptr %0, ptr %4, align 8, !tbaa !13
  store ptr %1, ptr %5, align 8, !tbaa !13
  call void @llvm.lifetime.start.p0(i64 32, ptr %6) #17
  call void @llvm.lifetime.start.p0(i64 16, ptr %7) #17
  br label %18

18:                                               ; preds = %2
  call void @llvm.lifetime.start.p0(i64 8, ptr %8) #17
  %19 = getelementptr inbounds [2 x %struct._zval_struct], ptr %6, i64 0, i64 0
  store ptr %19, ptr %8, align 8, !tbaa !13
  call void @llvm.lifetime.start.p0(i64 8, ptr %9) #17
  %20 = load ptr, ptr %4, align 8, !tbaa !13
  store ptr %20, ptr %9, align 8, !tbaa !13
  call void @llvm.lifetime.start.p0(i64 8, ptr %10) #17
  %21 = load ptr, ptr %9, align 8, !tbaa !13
  %22 = getelementptr inbounds nuw %struct._zval_struct, ptr %21, i32 0, i32 0
  %23 = load ptr, ptr %22, align 8, !tbaa !17
  store ptr %23, ptr %10, align 8, !tbaa !83
  call void @llvm.lifetime.start.p0(i64 4, ptr %11) #17
  %24 = load ptr, ptr %9, align 8, !tbaa !13
  %25 = getelementptr inbounds nuw %struct._zval_struct, ptr %24, i32 0, i32 1
  %26 = load i32, ptr %25, align 8, !tbaa !17
  store i32 %26, ptr %11, align 4, !tbaa !4
  br label %27

27:                                               ; preds = %18
  %28 = load ptr, ptr %10, align 8, !tbaa !83
  %29 = load ptr, ptr %8, align 8, !tbaa !13
  %30 = getelementptr inbounds nuw %struct._zval_struct, ptr %29, i32 0, i32 0
  store ptr %28, ptr %30, align 8, !tbaa !17
  %31 = load i32, ptr %11, align 4, !tbaa !4
  %32 = load ptr, ptr %8, align 8, !tbaa !13
  %33 = getelementptr inbounds nuw %struct._zval_struct, ptr %32, i32 0, i32 1
  store i32 %31, ptr %33, align 8, !tbaa !17
  br label %34

34:                                               ; preds = %27
  br label %35

35:                                               ; preds = %34
  call void @llvm.lifetime.end.p0(i64 4, ptr %11) #17
  call void @llvm.lifetime.end.p0(i64 8, ptr %10) #17
  call void @llvm.lifetime.end.p0(i64 8, ptr %9) #17
  call void @llvm.lifetime.end.p0(i64 8, ptr %8) #17
  br label %36

36:                                               ; preds = %35
  br label %37

37:                                               ; preds = %36
  br label %38

38:                                               ; preds = %37
  call void @llvm.lifetime.start.p0(i64 8, ptr %12) #17
  %39 = getelementptr inbounds [2 x %struct._zval_struct], ptr %6, i64 0, i64 1
  store ptr %39, ptr %12, align 8, !tbaa !13
  call void @llvm.lifetime.start.p0(i64 8, ptr %13) #17
  %40 = load ptr, ptr %5, align 8, !tbaa !13
  store ptr %40, ptr %13, align 8, !tbaa !13
  call void @llvm.lifetime.start.p0(i64 8, ptr %14) #17
  %41 = load ptr, ptr %13, align 8, !tbaa !13
  %42 = getelementptr inbounds nuw %struct._zval_struct, ptr %41, i32 0, i32 0
  %43 = load ptr, ptr %42, align 8, !tbaa !17
  store ptr %43, ptr %14, align 8, !tbaa !83
  call void @llvm.lifetime.start.p0(i64 4, ptr %15) #17
  %44 = load ptr, ptr %13, align 8, !tbaa !13
  %45 = getelementptr inbounds nuw %struct._zval_struct, ptr %44, i32 0, i32 1
  %46 = load i32, ptr %45, align 8, !tbaa !17
  store i32 %46, ptr %15, align 4, !tbaa !4
  br label %47

47:                                               ; preds = %38
  %48 = load ptr, ptr %14, align 8, !tbaa !83
  %49 = load ptr, ptr %12, align 8, !tbaa !13
  %50 = getelementptr inbounds nuw %struct._zval_struct, ptr %49, i32 0, i32 0
  store ptr %48, ptr %50, align 8, !tbaa !17
  %51 = load i32, ptr %15, align 4, !tbaa !4
  %52 = load ptr, ptr %12, align 8, !tbaa !13
  %53 = getelementptr inbounds nuw %struct._zval_struct, ptr %52, i32 0, i32 1
  store i32 %51, ptr %53, align 8, !tbaa !17
  br label %54

54:                                               ; preds = %47
  br label %55

55:                                               ; preds = %54
  call void @llvm.lifetime.end.p0(i64 4, ptr %15) #17
  call void @llvm.lifetime.end.p0(i64 8, ptr %14) #17
  call void @llvm.lifetime.end.p0(i64 8, ptr %13) #17
  call void @llvm.lifetime.end.p0(i64 8, ptr %12) #17
  br label %56

56:                                               ; preds = %55
  br label %57

57:                                               ; preds = %56
  store i32 2, ptr getelementptr inbounds nuw (%struct._zend_fcall_info, ptr getelementptr inbounds nuw (%struct._php_basic_globals, ptr @basic_globals, i32 0, i32 8), i32 0, i32 5), align 8, !tbaa !166
  %58 = getelementptr inbounds [2 x %struct._zval_struct], ptr %6, i64 0, i64 0
  store ptr %58, ptr getelementptr inbounds nuw (%struct._zend_fcall_info, ptr getelementptr inbounds nuw (%struct._php_basic_globals, ptr @basic_globals, i32 0, i32 8), i32 0, i32 3), align 8, !tbaa !178
  store ptr %7, ptr getelementptr inbounds nuw (%struct._zend_fcall_info, ptr getelementptr inbounds nuw (%struct._php_basic_globals, ptr @basic_globals, i32 0, i32 8), i32 0, i32 2), align 8, !tbaa !179
  %59 = call i32 @zend_call_function(ptr noundef getelementptr inbounds nuw (%struct._php_basic_globals, ptr @basic_globals, i32 0, i32 8), ptr noundef getelementptr inbounds nuw (%struct._php_basic_globals, ptr @basic_globals, i32 0, i32 9))
  %60 = icmp eq i32 %59, 0
  br i1 %60, label %61, label %76

61:                                               ; preds = %57
  %62 = call zeroext i8 @zval_get_type(ptr noundef %7)
  %63 = zext i8 %62 to i32
  %64 = icmp ne i32 %63, 0
  br i1 %64, label %65, label %76

65:                                               ; preds = %61
  call void @llvm.lifetime.start.p0(i64 8, ptr %16) #17
  %66 = call i64 @zval_get_long(ptr noundef %7)
  store i64 %66, ptr %16, align 8, !tbaa !15
  call void @zval_ptr_dtor(ptr noundef %7)
  %67 = load i64, ptr %16, align 8, !tbaa !15
  %68 = icmp ne i64 %67, 0
  br i1 %68, label %69, label %73

69:                                               ; preds = %65
  %70 = load i64, ptr %16, align 8, !tbaa !15
  %71 = icmp slt i64 %70, 0
  %72 = select i1 %71, i32 -1, i32 1
  br label %74

73:                                               ; preds = %65
  br label %74

74:                                               ; preds = %73, %69
  %75 = phi i32 [ %72, %69 ], [ 0, %73 ]
  store i32 %75, ptr %3, align 4
  store i32 1, ptr %17, align 4
  call void @llvm.lifetime.end.p0(i64 8, ptr %16) #17
  br label %77

76:                                               ; preds = %61, %57
  store i32 0, ptr %3, align 4
  store i32 1, ptr %17, align 4
  br label %77

77:                                               ; preds = %76, %74
  call void @llvm.lifetime.end.p0(i64 16, ptr %7) #17
  call void @llvm.lifetime.end.p0(i64 32, ptr %6) #17
  %78 = load i32, ptr %3, align 4
  ret i32 %78
}