; Function Attrs: nounwind uwtable
define internal range(i32 -1, 2) i32 @zval_user_compare(ptr noundef readonly captures(none) %0, ptr noundef readonly captures(none) %1) unnamed_addr #2 {
  %3 = alloca [2 x %struct._zval_struct], align 16
  %4 = alloca %struct._zval_struct, align 8
  call void @llvm.lifetime.start.p0(i64 32, ptr nonnull %3) #21
  call void @llvm.lifetime.start.p0(i64 16, ptr nonnull %4) #21
  %5 = load ptr, ptr %0, align 8, !tbaa !8
  %6 = getelementptr inbounds nuw i8, ptr %0, i64 8
  %7 = load i32, ptr %6, align 8, !tbaa !8
  store ptr %5, ptr %3, align 16, !tbaa !8
  %8 = getelementptr inbounds nuw i8, ptr %3, i64 8
  store i32 %7, ptr %8, align 8, !tbaa !8
  %9 = getelementptr inbounds nuw i8, ptr %3, i64 16
  %10 = load ptr, ptr %1, align 8, !tbaa !8
  %11 = getelementptr inbounds nuw i8, ptr %1, i64 8
  %12 = load i32, ptr %11, align 8, !tbaa !8
  store ptr %10, ptr %9, align 16, !tbaa !8
  %13 = getelementptr inbounds nuw i8, ptr %3, i64 24
  store i32 %12, ptr %13, align 8, !tbaa !8
  store i32 2, ptr getelementptr inbounds nuw (i8, ptr @basic_globals, i64 408), align 8, !tbaa !163
  store ptr %3, ptr getelementptr inbounds nuw (i8, ptr @basic_globals, i64 392), align 8, !tbaa !175
  store ptr %4, ptr getelementptr inbounds nuw (i8, ptr @basic_globals, i64 384), align 8, !tbaa !176
  %14 = call i32 @zend_call_function(ptr noundef nonnull getelementptr inbounds nuw (i8, ptr @basic_globals, i64 360), ptr noundef nonnull getelementptr inbounds nuw (i8, ptr @basic_globals, i64 424)) #21
  %15 = icmp eq i32 %14, 0
  br i1 %15, label %16, label %25

16:                                               ; preds = %2
  %17 = getelementptr inbounds nuw i8, ptr %4, i64 8
  %18 = load i8, ptr %17, align 8, !tbaa !8
  switch i8 %18, label %21 [
    i8 0, label %25
    i8 4, label %19
  ], !prof !63

19:                                               ; preds = %16
  %20 = load i64, ptr %4, align 8, !tbaa !8
  br label %zval_get_long.exit

21:                                               ; preds = %16
  %22 = call i64 @zval_get_long_func(ptr noundef nonnull %4, i1 noundef zeroext false) #21
  br label %zval_get_long.exit

zval_get_long.exit:                               ; preds = %19, %21
  %23 = phi i64 [ %20, %19 ], [ %22, %21 ]
  call void @zval_ptr_dtor(ptr noundef nonnull %4) #21
  %24 = call i32 @llvm.scmp.i32.i64(i64 %23, i64 0)
  br label %25

25:                                               ; preds = %16, %2, %zval_get_long.exit
  %.0 = phi i32 [ %24, %zval_get_long.exit ], [ 0, %16 ], [ 0, %2 ]
  call void @llvm.lifetime.end.p0(i64 16, ptr nonnull %4) #21
  call void @llvm.lifetime.end.p0(i64 32, ptr nonnull %3) #21
  ret i32 %.0
}